; Function Attrs: mustprogress uwtable
define internal noundef i32 @_ZL34hb_font_get_font_v_extents_defaultP9hb_font_tPvP17hb_font_extents_tS1_(ptr nocapture noundef readonly %0, ptr nocapture readnone %1, ptr noundef %2, ptr nocapture readnone %3) #1 {
  %5 = getelementptr inbounds i8, ptr %0, i64 24
  %6 = load ptr, ptr %5, align 8
  tail call void @llvm.memset.p0.i64(ptr noundef nonnull align 1 dereferenceable(48) %2, i8 0, i64 48, i1 false)
  %7 = getelementptr inbounds i8, ptr %6, i64 144
  %8 = load ptr, ptr %7, align 8
  %9 = getelementptr inbounds i8, ptr %8, i64 40
  %10 = load ptr, ptr %9, align 8
  %11 = getelementptr inbounds i8, ptr %6, i64 152
  %12 = load ptr, ptr %11, align 8
  %13 = getelementptr inbounds i8, ptr %8, i64 16
  %14 = load ptr, ptr %13, align 8
  %.not.i = icmp eq ptr %14, null
  br i1 %.not.i, label %_ZN9hb_font_t18get_font_v_extentsEP17hb_font_extents_t.exit, label %15

15:                                               ; preds = %4
  %16 = getelementptr inbounds i8, ptr %14, i64 8
  %17 = load ptr, ptr %16, align 8
  br label %_ZN9hb_font_t18get_font_v_extentsEP17hb_font_extents_t.exit

_ZN9hb_font_t18get_font_v_extentsEP17hb_font_extents_t.exit: ; preds = %4, %15
  %18 = phi ptr [ %17, %15 ], [ null, %4 ]
  %19 = tail call noundef i32 %10(ptr noundef nonnull %6, ptr noundef %12, ptr noundef nonnull %2, ptr noundef %18)
  %.not = icmp eq i32 %19, 0
  br i1 %.not, label %65, label %20

20:                                               ; preds = %_ZN9hb_font_t18get_font_v_extentsEP17hb_font_extents_t.exit
  %21 = load i32, ptr %2, align 4
  %22 = load ptr, ptr %5, align 8
  %.not.i12 = icmp eq ptr %22, null
  br i1 %.not.i12, label %_ZN9hb_font_t23parent_scale_x_distanceEi.exit, label %23

23:                                               ; preds = %20
  %24 = getelementptr inbounds i8, ptr %22, i64 40
  %25 = load i32, ptr %24, align 8
  %26 = getelementptr inbounds i8, ptr %0, i64 40
  %27 = load i32, ptr %26, align 8
  %.not6.i = icmp eq i32 %25, %27
  br i1 %.not6.i, label %_ZN9hb_font_t23parent_scale_x_distanceEi.exit, label %28

28:                                               ; preds = %23
  %29 = sext i32 %21 to i64
  %30 = sext i32 %27 to i64
  %31 = mul nsw i64 %30, %29
  %32 = sext i32 %25 to i64
  %33 = sdiv i64 %31, %32
  %34 = trunc i64 %33 to i32
  br label %_ZN9hb_font_t23parent_scale_x_distanceEi.exit

_ZN9hb_font_t23parent_scale_x_distanceEi.exit:    ; preds = %20, %23, %28
  %.0.i = phi i32 [ %34, %28 ], [ %21, %23 ], [ %21, %20 ]
  store i32 %.0.i, ptr %2, align 4
  %35 = getelementptr inbounds i8, ptr %2, i64 4
  %36 = load i32, ptr %35, align 4
  %37 = load ptr, ptr %5, align 8
  %.not.i13 = icmp eq ptr %37, null
  br i1 %.not.i13, label %_ZN9hb_font_t23parent_scale_x_distanceEi.exit16, label %38

38:                                               ; preds = %_ZN9hb_font_t23parent_scale_x_distanceEi.exit
  %39 = getelementptr inbounds i8, ptr %37, i64 40
  %40 = load i32, ptr %39, align 8
  %41 = getelementptr inbounds i8, ptr %0, i64 40
  %42 = load i32, ptr %41, align 8
  %.not6.i14 = icmp eq i32 %40, %42
  br i1 %.not6.i14, label %_ZN9hb_font_t23parent_scale_x_distanceEi.exit16, label %43

43:                                               ; preds = %38
  %44 = sext i32 %36 to i64
  %45 = sext i32 %42 to i64
  %46 = mul nsw i64 %45, %44
  %47 = sext i32 %40 to i64
  %48 = sdiv i64 %46, %47
  %49 = trunc i64 %48 to i32
  br label %_ZN9hb_font_t23parent_scale_x_distanceEi.exit16

_ZN9hb_font_t23parent_scale_x_distanceEi.exit16:  ; preds = %_ZN9hb_font_t23parent_scale_x_distanceEi.exit, %38, %43
  %.0.i15 = phi i32 [ %49, %43 ], [ %36, %38 ], [ %36, %_ZN9hb_font_t23parent_scale_x_distanceEi.exit ]
  store i32 %.0.i15, ptr %35, align 4
  %50 = getelementptr inbounds i8, ptr %2, i64 8
  %51 = load i32, ptr %50, align 4
  %52 = load ptr, ptr %5, align 8
  %.not.i17 = icmp eq ptr %52, null
  br i1 %.not.i17, label %_ZN9hb_font_t23parent_scale_x_distanceEi.exit20, label %53

53:                                               ; preds = %_ZN9hb_font_t23parent_scale_x_distanceEi.exit16
  %54 = getelementptr inbounds i8, ptr %52, i64 40
  %55 = load i32, ptr %54, align 8
  %56 = getelementptr inbounds i8, ptr %0, i64 40
  %57 = load i32, ptr %56, align 8
  %.not6.i18 = icmp eq i32 %55, %57
  br i1 %.not6.i18, label %_ZN9hb_font_t23parent_scale_x_distanceEi.exit20, label %58

58:                                               ; preds = %53
  %59 = sext i32 %51 to i64
  %60 = sext i32 %57 to i64
  %61 = mul nsw i64 %60, %59
  %62 = sext i32 %55 to i64
  %63 = sdiv i64 %61, %62
  %64 = trunc i64 %63 to i32
  br label %_ZN9hb_font_t23parent_scale_x_distanceEi.exit20

_ZN9hb_font_t23parent_scale_x_distanceEi.exit20:  ; preds = %_ZN9hb_font_t23parent_scale_x_distanceEi.exit16, %53, %58
  %.0.i19 = phi i32 [ %64, %58 ], [ %51, %53 ], [ %51, %_ZN9hb_font_t23parent_scale_x_distanceEi.exit16 ]
  store i32 %.0.i19, ptr %50, align 4
  br label %65

65:                                               ; preds = %_ZN9hb_font_t23parent_scale_x_distanceEi.exit20, %_ZN9hb_font_t18get_font_v_extentsEP17hb_font_extents_t.exit
  ret i32 %19
}